; ModuleID = '21/199.c'
source_filename = "21/199.c"
target datalayout = "e-m:e-p270:32:32-p271:32:32-p272:64:64-i64:64-f80:128-n8:16:32:64-S128"
target triple = "x86_64-pc-linux-gnu"

@.str = private unnamed_addr constant [3 x i8] c"%d\00", align 1
@.str.1 = private unnamed_addr constant [4 x i8] c",%d\00", align 1

; Function Attrs: noinline nounwind uwtable
define dso_local i32 @main() #0 {
  %1 = alloca i32, align 4
  %2 = alloca i32, align 4
  %3 = alloca i32, align 4
  %4 = alloca i32, align 4
  %5 = alloca [100 x i32], align 16
  %6 = alloca double, align 8
  %7 = alloca double, align 8
  %8 = alloca double, align 8
  store i32 0, i32* %1, align 4
  %9 = call i32 (i8*, ...) @__isoc99_scanf(i8* getelementptr inbounds ([3 x i8], [3 x i8]* @.str, i64 0, i64 0), i32* %2)
  store double 0.000000e+00, double* %6, align 8
  store double 0.000000e+00, double* %7, align 8
  store i32 0, i32* %4, align 4
  store i32 1, i32* %3, align 4
  br label %10

10:                                               ; preds = %26, %0
  %11 = load i32, i32* %3, align 4
  %12 = load i32, i32* %2, align 4
  %13 = icmp sle i32 %11, %12
  br i1 %13, label %14, label %29

14:                                               ; preds = %10
  %15 = load i32, i32* %3, align 4
  %16 = sext i32 %15 to i64
  %17 = getelementptr inbounds [100 x i32], [100 x i32]* %5, i64 0, i64 %16
  %18 = call i32 (i8*, ...) @__isoc99_scanf(i8* getelementptr inbounds ([3 x i8], [3 x i8]* @.str, i64 0, i64 0), i32* %17)
  %19 = load double, double* %7, align 8
  %20 = load i32, i32* %3, align 4
  %21 = sext i32 %20 to i64
  %22 = getelementptr inbounds [100 x i32], [100 x i32]* %5, i64 0, i64 %21
  %23 = load i32, i32* %22, align 4
  %24 = sitofp i32 %23 to double
  %25 = fadd double %19, %24
  store double %25, double* %7, align 8
  br label %26

26:                                               ; preds = %14
  %27 = load i32, i32* %3, align 4
  %28 = add nsw i32 %27, 1
  store i32 %28, i32* %3, align 4
  br label %10

29:                                               ; preds = %10
  %30 = load double, double* %7, align 8
  %31 = load i32, i32* %2, align 4
  %32 = sitofp i32 %31 to double
  %33 = fdiv double %30, %32
  store double %33, double* %8, align 8
  store i32 1, i32* %3, align 4
  br label %34

34:                                               ; preds = %60, %29
  %35 = load i32, i32* %3, align 4
  %36 = load i32, i32* %2, align 4
  %37 = icmp sle i32 %35, %36
  br i1 %37, label %38, label %63

38:                                               ; preds = %34
  %39 = load double, double* %8, align 8
  %40 = load i32, i32* %3, align 4
  %41 = sext i32 %40 to i64
  %42 = getelementptr inbounds [100 x i32], [100 x i32]* %5, i64 0, i64 %41
  %43 = load i32, i32* %42, align 4
  %44 = sitofp i32 %43 to double
  %45 = fsub double %39, %44
  %46 = call double @llvm.fabs.f64(double %45)
  %47 = load double, double* %6, align 8
  %48 = fcmp ogt double %46, %47
  br i1 %48, label %49, label %59

49:                                               ; preds = %38
  %50 = load double, double* %8, align 8
  %51 = load i32, i32* %3, align 4
  %52 = sext i32 %51 to i64
  %53 = getelementptr inbounds [100 x i32], [100 x i32]* %5, i64 0, i64 %52
  %54 = load i32, i32* %53, align 4
  %55 = sitofp i32 %54 to double
  %56 = fsub double %50, %55
  %57 = call double @llvm.fabs.f64(double %56)
  store double %57, double* %6, align 8
  %58 = load i32, i32* %3, align 4
  store i32 %58, i32* %4, align 4
  br label %59

59:                                               ; preds = %49, %38
  br label %60

60:                                               ; preds = %59
  %61 = load i32, i32* %3, align 4
  %62 = add nsw i32 %61, 1
  store i32 %62, i32* %3, align 4
  br label %34

63:                                               ; preds = %34
  %64 = load i32, i32* %4, align 4
  %65 = icmp ne i32 %64, 0
  br i1 %65, label %66, label %72

66:                                               ; preds = %63
  %67 = load i32, i32* %4, align 4
  %68 = sext i32 %67 to i64
  %69 = getelementptr inbounds [100 x i32], [100 x i32]* %5, i64 0, i64 %68
  %70 = load i32, i32* %69, align 4
  %71 = call i32 (i8*, ...) @printf(i8* getelementptr inbounds ([3 x i8], [3 x i8]* @.str, i64 0, i64 0), i32 %70)
  br label %72

72:                                               ; preds = %66, %63
  store i32 1, i32* %3, align 4
  br label %73

73:                                               ; preds = %99, %72
  %74 = load i32, i32* %3, align 4
  %75 = load i32, i32* %2, align 4
  %76 = icmp sle i32 %74, %75
  br i1 %76, label %77, label %102

77:                                               ; preds = %73
  %78 = load double, double* %8, align 8
  %79 = load i32, i32* %3, align 4
  %80 = sext i32 %79 to i64
  %81 = getelementptr inbounds [100 x i32], [100 x i32]* %5, i64 0, i64 %80
  %82 = load i32, i32* %81, align 4
  %83 = sitofp i32 %82 to double
  %84 = fsub double %78, %83
  %85 = call double @llvm.fabs.f64(double %84)
  %86 = load double, double* %6, align 8
  %87 = fcmp oeq double %85, %86
  br i1 %87, label %88, label %98

88:                                               ; preds = %77
  %89 = load i32, i32* %3, align 4
  %90 = load i32, i32* %4, align 4
  %91 = icmp ne i32 %89, %90
  br i1 %91, label %92, label %98

92:                                               ; preds = %88
  %93 = load i32, i32* %3, align 4
  %94 = sext i32 %93 to i64
  %95 = getelementptr inbounds [100 x i32], [100 x i32]* %5, i64 0, i64 %94
  %96 = load i32, i32* %95, align 4
  %97 = call i32 (i8*, ...) @printf(i8* getelementptr inbounds ([4 x i8], [4 x i8]* @.str.1, i64 0, i64 0), i32 %96)
  br label %98

98:                                               ; preds = %92, %88, %77
  br label %99

99:                                               ; preds = %98
  %100 = load i32, i32* %3, align 4
  %101 = add nsw i32 %100, 1
  store i32 %101, i32* %3, align 4
  br label %73

102:                                              ; preds = %73
  ret i32 0
}

declare dso_local i32 @__isoc99_scanf(i8*, ...) #1

; Function Attrs: nounwind readnone speculatable willreturn
declare double @llvm.fabs.f64(double) #2

declare dso_local i32 @printf(i8*, ...) #1


!llvm.module.flags = !{!0}
!llvm.ident = !{!1}

!0 = !{i32 1, !"wchar_size", i32 4}
!1 = !{!"clang version 10.0.0-4ubuntu1 "}
